(lp0
ccopy_reg
_reconstructor
p1
(cneuron
Neuron
p2
c__builtin__
object
p3
Ntp4
Rp5
(dp6
S'err_margin'
p7
F0.1
sS'inputs'
p8
(lp9
I255
aI0
aI43
aI255
aI57
aI255
aI255
aI119
aI153
aI255
aI245
aI255
aI182
aI0
aI4
aI236
aI255
aI0
aI237
aI255
aI76
aI0
aI255
aI27
aI0
aI175
aI0
aI255
aI255
aI0
aI0
aI176
aI0
aI255
aI44
asS'f_stretch'
p10
I1
sS'l_rate'
p11
F0.005
sS'a_func'
p12
S'step'
p13
sS'weights'
p14
(lp15
F3.5949999999999998
aF-5.250000000000001
aF-2.41
aF-6.600000000000002
aF-7.455000000000004
aF-1.8900000000000003
aF1.6049999999999995
aF-3.055000000000001
aF-2.3049999999999993
aF3.4399999999999995
aF8.560000000000002
aF-11.72
aF3.0299999999999994
aF-1.9149999999999996
aF-2.415
aF1.4749999999999996
aF5.590000000000001
aF-3.4800000000000004
aF0.1399999999999999
aF-0.12999999999999995
aF-0.540000000000001
aF-1.29
aF-2.66
aF-6.5050000000000034
aF9.530000000000003
aF0.12499999999999956
aF-2.5549999999999997
aF0.0050000000000001155
aF7.280000000000001
aF-5.765000000000003
aF-7.69
aF-2.7950000000000017
aF0.2649999999999999
aF-5.109999999999999
aF-2.4150000000000005
asS'threshold'
p16
F1.005
sS'output'
p17
F0.0
sbag1
(g2
g3
Ntp18
Rp19
(dp20
g7
F0.1
sg8
(lp21
I255
aI0
aI43
aI255
aI57
aI255
aI255
aI119
aI153
aI255
aI245
aI255
aI182
aI0
aI4
aI236
aI255
aI0
aI237
aI255
aI76
aI0
aI255
aI27
aI0
aI175
aI0
aI255
aI255
aI0
aI0
aI176
aI0
aI255
aI44
asg10
I1
sg11
F0.005
sg12
g13
sg14
(lp22
F2.0100000000000002
aF0.385
aF-1.025
aF-0.27000000000000046
aF3.6900000000000004
aF1.4650000000000005
aF-1.125
aF2.4650000000000007
aF-6.195
aF1.3450000000000002
aF-2.035
aF3.5950000000000006
aF-0.6600000000000001
aF-4.445000000000001
aF2.8249999999999997
aF-8.540000000000001
aF-7.645000000000002
aF-10.195
aF-4.255000000000001
aF-11.1
aF-6.460000000000001
aF6.155000000000001
aF3.170000000000001
aF-0.8699999999999996
aF5.375000000000001
aF-0.57
aF1.73
aF-0.08000000000000007
aF-0.8399999999999992
aF1.3949999999999998
aF1.3349999999999995
aF-2.6950000000000003
aF8.305000000000001
aF3.560000000000002
aF0.9149999999999994
asg16
F1.0249999999999995
sg17
F0.0
sbag1
(g2
g3
Ntp23
Rp24
(dp25
g7
F0.1
sg8
(lp26
I255
aI0
aI43
aI255
aI57
aI255
aI255
aI119
aI153
aI255
aI245
aI255
aI182
aI0
aI4
aI236
aI255
aI0
aI237
aI255
aI76
aI0
aI255
aI27
aI0
aI175
aI0
aI255
aI255
aI0
aI0
aI176
aI0
aI255
aI44
asg10
I1
sg11
F0.005
sg12
g13
sg14
(lp27
F0.48000000000000037
aF-3.3499999999999996
aF-0.0950000000000002
aF0.19000000000000017
aF1.0000000000000002
aF2.4050000000000002
aF-7.295000000000002
aF-0.5100000000000002
aF0.7900000000000001
aF-0.2450000000000001
aF-0.8250000000000002
aF2.59
aF-5.5200000000000005
aF-1.4200000000000002
aF-1.155
aF-0.14499999999999957
aF2.4299999999999997
aF1.6849999999999998
aF-5.675000000000001
aF-1.09
aF-0.8900000000000002
aF-1.5350000000000001
aF1.7650000000000001
aF-1.16
aF-1.9050000000000002
aF-0.7799999999999999
aF0.5500000000000003
aF-3.9350000000000005
aF2.9450000000000003
aF-2.325
aF-4.115
aF0.7949999999999997
aF2.7550000000000017
aF2.595
aF-6.94
asg16
F1.0149999999999997
sg17
F0.0
sbag1
(g2
g3
Ntp28
Rp29
(dp30
g7
F0.1
sg8
(lp31
I255
aI0
aI43
aI255
aI57
aI255
aI255
aI119
aI153
aI255
aI245
aI255
aI182
aI0
aI4
aI236
aI255
aI0
aI237
aI255
aI76
aI0
aI255
aI27
aI0
aI175
aI0
aI255
aI255
aI0
aI0
aI176
aI0
aI255
aI44
asg10
I1
sg11
F0.005
sg12
g13
sg14
(lp32
F-5.2250000000000005
aF5.1450000000000005
aF6.25
aF1.5499999999999998
aF1.25
aF-6.450000000000002
aF0.6049999999999995
aF-5.07
aF-1.2850000000000001
aF4.905000000000001
aF-0.08999999999999964
aF1.6050000000000002
aF-3.7749999999999995
aF-4.435
aF-2.7350000000000003
aF-0.22500000000000048
aF-5.620000000000001
aF2.6950000000000003
aF0.43000000000000005
aF-1.8450000000000002
aF-3.695000000000001
aF0.66
aF-8.280000000000001
aF4.145000000000001
aF-6.615000000000001
aF-0.9550000000000003
aF2.8750000000000004
aF2.15
aF-6.475000000000001
aF-1.6750000000000005
aF-1.0399999999999996
aF3.6450000000000005
aF-1.0450000000000002
aF-4.075000000000001
aF-2.3900000000000006
asg16
F1.0199999999999996
sg17
F0.0
sbag1
(g2
g3
Ntp33
Rp34
(dp35
g7
F0.1
sg8
(lp36
I255
aI0
aI43
aI255
aI57
aI255
aI255
aI119
aI153
aI255
aI245
aI255
aI182
aI0
aI4
aI236
aI255
aI0
aI237
aI255
aI76
aI0
aI255
aI27
aI0
aI175
aI0
aI255
aI255
aI0
aI0
aI176
aI0
aI255
aI44
asg10
I1
sg11
F0.005
sg12
g13
sg14
(lp37
F-0.2749999999999999
aF2.2750000000000004
aF2.115
aF-1.5500000000000003
aF-1.5500000000000003
aF0.33000000000000007
aF-0.6900000000000002
aF1.625
aF-0.27500000000000013
aF-0.13000000000000012
aF-0.78
aF-1.25
aF-1.55
aF2.4050000000000002
aF1.21
aF-2.4250000000000003
aF0.8799999999999999
aF1.985
aF-2.825
aF-0.27500000000000013
aF2.755
aF-0.27500000000000013
aF-3.8500000000000005
aF-1.165
aF-2.7650000000000006
aF-2.4700000000000006
aF-2.785
aF-0.21500000000000008
aF0.395
aF1.0000000000000002
aF0.9349999999999998
aF2.125
aF-0.27500000000000013
aF2.4450000000000003
aF-0.7150000000000001
asg16
F1.0099999999999998
sg17
F0.0
sbag1
(g2
g3
Ntp38
Rp39
(dp40
g7
F0.1
sg8
(lp41
I255
aI0
aI43
aI255
aI57
aI255
aI255
aI119
aI153
aI255
aI245
aI255
aI182
aI0
aI4
aI236
aI255
aI0
aI237
aI255
aI76
aI0
aI255
aI27
aI0
aI175
aI0
aI255
aI255
aI0
aI0
aI176
aI0
aI255
aI44
asg10
I1
sg11
F0.005
sg12
g13
sg14
(lp42
F-4.4750000000000005
aF-6.075000000000001
aF-1.815
aF1.735
aF2.785
aF-2.6050000000000004
aF0.2450000000000001
aF-2.94
aF2.2750000000000004
aF-6.810000000000001
aF0.7050000000000003
aF3.0250000000000004
aF-0.34499999999999975
aF-0.275
aF-0.775
aF-0.5449999999999999
aF-5.375000000000001
aF2.155000000000001
aF-0.3600000000000001
aF0.5050000000000001
aF-2.6300000000000003
aF-0.7150000000000002
aF3.1350000000000002
aF-4.590000000000001
aF4.2700000000000005
aF-1.0400000000000003
aF-1.045
aF0.45499999999999985
aF-3.3200000000000003
aF1.4350000000000003
aF-0.18499999999999997
aF-5.985
aF1.345
aF-2.095
aF0.9950000000000001
asg16
F1.0099999999999998
sg17
F0.0
sbag1
(g2
g3
Ntp43
Rp44
(dp45
g7
F0.1
sg8
(lp46
I255
aI0
aI43
aI255
aI57
aI255
aI255
aI119
aI153
aI255
aI245
aI255
aI182
aI0
aI4
aI236
aI255
aI0
aI237
aI255
aI76
aI0
aI255
aI27
aI0
aI175
aI0
aI255
aI255
aI0
aI0
aI176
aI0
aI255
aI44
asg10
I1
sg11
F0.005
sg12
g13
sg14
(lp47
F1.9600000000000006
aF6.88
aF-8.010000000000002
aF-9.555000000000001
aF-2.0950000000000006
aF0.7450000000000002
aF-1.8800000000000001
aF10.670000000000002
aF-13.920000000000003
aF1.1
aF-8.425
aF1.0350000000000001
aF-2.6550000000000007
aF-1.5799999999999998
aF1.2449999999999997
aF2.44
aF-3.0
aF-0.7150000000000002
aF0.8649999999999998
aF-0.6300000000000006
aF-0.8749999999999998
aF-1.9450000000000007
aF0.19999999999999973
aF-0.9350000000000007
aF-4.509999999999999
aF2.5149999999999997
aF-0.4049999999999998
aF-0.6649999999999999
aF-0.02999999999999936
aF6.255000000000001
aF9.440000000000001
aF1.0399999999999998
aF-0.6950000000000003
aF-5.565
aF-7.085000000000001
asg16
F1.0149999999999997
sg17
F0.0
sbag1
(g2
g3
Ntp48
Rp49
(dp50
g7
F0.1
sg8
(lp51
I255
aI0
aI43
aI255
aI57
aI255
aI255
aI119
aI153
aI255
aI245
aI255
aI182
aI0
aI4
aI236
aI255
aI0
aI237
aI255
aI76
aI0
aI255
aI27
aI0
aI175
aI0
aI255
aI255
aI0
aI0
aI176
aI0
aI255
aI44
asg10
I1
sg11
F0.005
sg12
g13
sg14
(lp52
F-9.660000000000002
aF2.1800000000000006
aF1.9800000000000002
aF2.45
aF-0.7749999999999997
aF1.7000000000000004
aF-4.245000000000001
aF-0.6750000000000008
aF-2.000000000000001
aF-3.425
aF0.5300000000000004
aF-8.780000000000001
aF-8.75
aF-0.09500000000000008
aF-1.4100000000000001
aF0.3200000000000003
aF2.085
aF-4.450000000000001
aF2.74
aF0.885
aF6.500000000000002
aF-0.10000000000000064
aF-2.7
aF-7.8450000000000015
aF1.9349999999999998
aF-1.9450000000000005
aF0.5600000000000003
aF7.029999999999999
aF-9.710000000000004
aF-2.6799999999999997
aF0.07000000000000073
aF-1.0250000000000001
aF4.050000000000001
aF4.170000000000001
aF-0.6400000000000006
asg16
F1.0249999999999995
sg17
F0.0
sbag1
(g2
g3
Ntp53
Rp54
(dp55
g7
F0.1
sg8
(lp56
I255
aI0
aI43
aI255
aI57
aI255
aI255
aI119
aI153
aI255
aI245
aI255
aI182
aI0
aI4
aI236
aI255
aI0
aI237
aI255
aI76
aI0
aI255
aI27
aI0
aI175
aI0
aI255
aI255
aI0
aI0
aI176
aI0
aI255
aI44
asg10
I1
sg11
F0.005
sg12
g13
sg14
(lp57
F-0.2799999999999995
aF-7.015000000000001
aF-6.045
aF4.615000000000002
aF-7.050000000000002
aF-11.450000000000001
aF0.10000000000000053
aF-4.829999999999999
aF3.519999999999997
aF2.1850000000000005
aF-8.445
aF7.565000000000003
aF-5.804999999999998
aF5.085
aF3.1449999999999996
aF-1.855
aF1.9100000000000006
aF-3.4350000000000005
aF0.31499999999999967
aF-2.585
aF0.1750000000000002
aF-5.045000000000001
aF-0.18999999999999972
aF5.295000000000002
aF-7.110000000000002
aF-3.32
aF10.07
aF-9.820000000000002
aF-1.5600000000000014
aF-6.454999999999999
aF-7.590000000000001
aF6.249999999999997
aF-4.385000000000001
aF-13.980000000000002
aF0.5650000000000006
asg16
F1.0249999999999995
sg17
F0.0
sbag1
(g2
g3
Ntp58
Rp59
(dp60
g7
F0.1
sg8
(lp61
I255
aI0
aI43
aI255
aI57
aI255
aI255
aI119
aI153
aI255
aI245
aI255
aI182
aI0
aI4
aI236
aI255
aI0
aI237
aI255
aI76
aI0
aI255
aI27
aI0
aI175
aI0
aI255
aI255
aI0
aI0
aI176
aI0
aI255
aI44
asg10
I1
sg11
F0.005
sg12
g13
sg14
(lp62
F-2.88
aF-3.785
aF-6.020000000000002
aF-3.1649999999999996
aF11.200000000000001
aF0.795000000000001
aF0.9549999999999994
aF0.5449999999999997
aF1.7300000000000002
aF-0.9500000000000003
aF-10.770000000000003
aF2.744999999999999
aF-0.7449999999999996
aF-1.585
aF-0.039999999999999813
aF1.3150000000000006
aF-0.2749999999999999
aF-4.180000000000001
aF5.445
aF-2.7199999999999998
aF-4.340000000000001
aF-0.5450000000000004
aF-2.5999999999999996
aF1.5900000000000012
aF-5.475000000000003
aF-0.09999999999999988
aF-12.16
aF11.575000000000005
aF-0.4399999999999995
aF-1.3250000000000006
aF-3.245000000000001
aF-8.39
aF-2.2850000000000006
aF7.045000000000001
aF1.2350000000000005
asg16
F1.0299999999999994
sg17
F1.0
sba.